; Function Attrs: mustprogress uwtable
define internal void @_ZN7rocksdb12_GLOBAL__N_119CountedWritableFile6AppendERKNS_5SliceERKNS_9IOOptionsERKNS_20DataVerificationInfoEPNS_14IODebugContextE(ptr dead_on_unwind noalias writable sret(%"class.rocksdb::IOStatus") align 8 %0, ptr noundef nonnull readonly align 8 captures(none) dereferenceable(64) %1, ptr noundef nonnull align 8 dereferenceable(16) %2, ptr noundef nonnull align 8 dereferenceable(84) %3, ptr noundef nonnull align 8 dereferenceable(16) %4, ptr noundef %5) unnamed_addr #0 align 2 personality ptr @__gxx_personality_v0 {
  %7 = getelementptr inbounds nuw i8, ptr %1, i64 40
  %8 = load ptr, ptr %7, align 8, !tbaa !113
  %9 = load ptr, ptr %8, align 8, !tbaa !4
  %10 = getelementptr inbounds nuw i8, ptr %9, i64 24
  %11 = load ptr, ptr %10, align 8
  tail call void %11(ptr dead_on_unwind writable sret(%"class.rocksdb::IOStatus") align 8 %0, ptr noundef nonnull align 8 dereferenceable(33) %8, ptr noundef nonnull align 8 dereferenceable(16) %2, ptr noundef nonnull align 8 dereferenceable(84) %3, ptr noundef nonnull align 8 dereferenceable(16) %4, ptr noundef %5)
  %12 = getelementptr inbounds nuw i8, ptr %1, i64 56
  %13 = load ptr, ptr %12, align 8, !tbaa !116
  %14 = getelementptr inbounds nuw i8, ptr %2, i64 8
  %15 = load i64, ptr %14, align 8, !tbaa !168
  %16 = load i8, ptr %0, align 8, !tbaa !64
  %17 = icmp eq i8 %16, 3
  br i1 %17, label %_ZN7rocksdb9OpCounter8RecordOpERKNS_8IOStatusEm.exit, label %18

18:                                               ; preds = %6
  %19 = getelementptr inbounds nuw i8, ptr %13, i64 104
  %20 = atomicrmw add ptr %19, i32 1 monotonic, align 4
  %.pr.i = load i8, ptr %0, align 8, !tbaa !64
  %21 = icmp eq i8 %.pr.i, 0
  br i1 %21, label %22, label %_ZN7rocksdb9OpCounter8RecordOpERKNS_8IOStatusEm.exit

22:                                               ; preds = %18
  %23 = getelementptr inbounds nuw i8, ptr %13, i64 112
  %24 = atomicrmw add ptr %23, i64 %15 monotonic, align 8
  br label %_ZN7rocksdb9OpCounter8RecordOpERKNS_8IOStatusEm.exit

_ZN7rocksdb9OpCounter8RecordOpERKNS_8IOStatusEm.exit: ; preds = %22, %18, %6
  ret void
}